target datalayout = "e-m:e-p270:32:32-p271:32:32-p272:64:64-i64:64-i128:128-f80:128-n8:16:32:64-S128"
target triple = "x86_64-pc-linux-gnu"

@proto_register_tcpros.ett = internal global [1 x ptr] [ptr @ett_tcpros], align 8
@.str.65 = private unnamed_addr constant [51 x i8] c"TCP based Robot Operating System protocol (TCPROS)\00", align 1
@.str.66 = private unnamed_addr constant [7 x i8] c"TCPROS\00", align 1
@.str.67 = private unnamed_addr constant [7 x i8] c"tcpros\00", align 1
@proto_tcpros = internal global i32 0, align 4
@tcpros_handle = internal global ptr null, align 8
@.str.68 = private unnamed_addr constant [26 x i8] c"desegment_tcpros_messages\00", align 1
@.str.69 = private unnamed_addr constant [58 x i8] c"Reassemble TCPROS messages spanning multiple TCP segments\00", align 1
@.str.70 = private unnamed_addr constant [207 x i8] c"Whether the TCPROS dissector should reassemble messages spanning multiple TCP segments. To use this option, you must also enable \22Allow subdissectors to reassemble TCP streams\22 in the TCP protocol settings.\00", align 1
@tcpros_desegment = internal global i8 1, align 1

; Function Attrs: null_pointer_is_valid sspstrong uwtable
define hidden void @proto_register_tcpros() #0 {
  %1 = alloca ptr, align 8
  call void @llvm.lifetime.start.p0(i64 8, ptr %1) #3
  %2 = call i32 @proto_register_protocol(ptr noundef @.str.65, ptr noundef @.str.66, ptr noundef @.str.67)
  store i32 %2, ptr @proto_tcpros, align 4
  %3 = load i32, ptr @proto_tcpros, align 4
  call void @proto_register_field_array(i32 noundef %3, ptr noundef @proto_register_tcpros.hf, i32 noundef 22)
  call void @proto_register_subtree_array(ptr noundef @proto_register_tcpros.ett, i32 noundef 1)
  %4 = load i32, ptr @proto_tcpros, align 4
  %5 = call ptr @register_dissector(ptr noundef @.str.67, ptr noundef @dissect_tcpros, i32 noundef %4)
  store ptr %5, ptr @tcpros_handle, align 8
  %6 = load i32, ptr @proto_tcpros, align 4
  %7 = call ptr @prefs_register_protocol(i32 noundef %6, ptr noundef null)
  store ptr %7, ptr %1, align 8
  %8 = load ptr, ptr %1, align 8
  call void @prefs_register_bool_preference(ptr noundef %8, ptr noundef @.str.68, ptr noundef @.str.69, ptr noundef @.str.70, ptr noundef @tcpros_desegment)
  call void @llvm.lifetime.end.p0(i64 8, ptr %1) #3
  ret void
}