; Function Attrs: null_pointer_is_valid sspstrong uwtable
define hidden void @proto_register_tcpros() local_unnamed_addr #0 {
  %1 = tail call i32 @proto_register_protocol(ptr noundef nonnull @.str.65, ptr noundef nonnull @.str.66, ptr noundef nonnull @.str.67)
  store i32 %1, ptr @proto_tcpros, align 4
  tail call void @proto_register_field_array(i32 noundef %1, ptr noundef nonnull @proto_register_tcpros.hf, i32 noundef 22)
  tail call void @proto_register_subtree_array(ptr noundef nonnull @proto_register_tcpros.ett, i32 noundef 1)
  %2 = load i32, ptr @proto_tcpros, align 4
  %3 = tail call ptr @register_dissector(ptr noundef nonnull @.str.67, ptr noundef nonnull @dissect_tcpros, i32 noundef %2)
  store ptr %3, ptr @tcpros_handle, align 8
  %4 = load i32, ptr @proto_tcpros, align 4
  %5 = tail call ptr @prefs_register_protocol(i32 noundef %4, ptr noundef null)
  tail call void @prefs_register_bool_preference(ptr noundef %5, ptr noundef nonnull @.str.68, ptr noundef nonnull @.str.69, ptr noundef nonnull @.str.70, ptr noundef nonnull @tcpros_desegment)
  ret void
}